; Function Attrs: nounwind sspstrong uwtable
define dso_local i64 @rb_fix2str(i64 noundef %0, i32 noundef %1) local_unnamed_addr #2 {
  %3 = alloca [65 x i8], align 16
  call void @llvm.lifetime.start.p0(i64 65, ptr nonnull %3) #26
  %4 = getelementptr inbounds nuw i8, ptr %3, i64 65
  %5 = ashr i64 %0, 1
  %6 = add i32 %1, -37
  %or.cond = icmp ult i32 %6, -35
  br i1 %or.cond, label %7, label %9

7:                                                ; preds = %2
  %8 = load i64, ptr @rb_eArgError, align 8, !tbaa !7
  tail call void (i64, ptr, ...) @rb_raise(i64 noundef %8, ptr noundef nonnull @.str.20, i32 noundef %1) #25
  unreachable

9:                                                ; preds = %2
  %10 = icmp ult i64 %0, 2
  br i1 %10, label %11, label %13

11:                                               ; preds = %9
  %12 = tail call i64 @rb_usascii_str_new_static(ptr noundef nonnull @.str.21, i64 noundef 1) #26
  br label %30

13:                                               ; preds = %9
  %.020 = tail call i64 @llvm.abs.i64(i64 %5, i1 true)
  %14 = zext nneg i32 %1 to i64
  br label %15

15:                                               ; preds = %15, %13
  %.022 = phi ptr [ %4, %13 ], [ %19, %15 ]
  %.1 = phi i64 [ %.020, %13 ], [ %20, %15 ]
  %16 = urem i64 %.1, %14
  %17 = getelementptr [0 x i8], ptr @ruby_digitmap, i64 0, i64 %16
  %18 = load i8, ptr %17, align 1, !tbaa !20
  %19 = getelementptr i8, ptr %.022, i64 -1
  store i8 %18, ptr %19, align 1, !tbaa !20
  %20 = udiv i64 %.1, %14
  %.not = icmp samesign ult i64 %.1, %14
  br i1 %.not, label %21, label %15, !llvm.loop !45

21:                                               ; preds = %15
  %22 = icmp sgt i64 %5, -1
  br i1 %22, label %25, label %23

23:                                               ; preds = %21
  %24 = getelementptr i8, ptr %.022, i64 -2
  store i8 45, ptr %24, align 1, !tbaa !20
  br label %25

25:                                               ; preds = %21, %23
  %.123 = phi ptr [ %24, %23 ], [ %19, %21 ]
  %26 = ptrtoint ptr %4 to i64
  %27 = ptrtoint ptr %.123 to i64
  %28 = sub i64 %26, %27
  %29 = call i64 @rb_usascii_str_new(ptr noundef nonnull %.123, i64 noundef %28) #26
  br label %30

30:                                               ; preds = %25, %11
  %.021 = phi i64 [ %12, %11 ], [ %29, %25 ]
  call void @llvm.lifetime.end.p0(i64 65, ptr nonnull %3) #26
  ret i64 %.021
}